target datalayout = "e-m:e-p270:32:32-p271:32:32-p272:64:64-i64:64-i128:128-f80:128-n8:16:32:64-S128"
target triple = "x86_64-pc-linux-gnu"

%struct.lzma_check_state = type { %union.anon, %union.anon.0 }
%union.anon = type { [8 x i64] }
%union.anon.0 = type { %struct.lzma_sha256_state }
%struct.lzma_sha256_state = type { [8 x i32], i64 }

; Function Attrs: nounwind uwtable
define internal i32 @__bswap_32(i32 noundef %0) #0 {
  %2 = alloca i32, align 4
  store i32 %0, ptr %2, align 4
  %3 = load i32, ptr %2, align 4
  %4 = and i32 %3, -16777216
  %5 = lshr i32 %4, 24
  %6 = load i32, ptr %2, align 4
  %7 = and i32 %6, 16711680
  %8 = lshr i32 %7, 8
  %9 = or i32 %5, %8
  %10 = load i32, ptr %2, align 4
  %11 = and i32 %10, 65280
  %12 = shl i32 %11, 8
  %13 = or i32 %9, %12
  %14 = load i32, ptr %2, align 4
  %15 = and i32 %14, 255
  %16 = shl i32 %15, 24
  %17 = or i32 %13, %16
  ret i32 %17
}

; Function Attrs: nounwind uwtable
define internal i64 @__bswap_64(i64 noundef %0) #0 {
  %2 = alloca i64, align 8
  store i64 %0, ptr %2, align 8
  %3 = load i64, ptr %2, align 8
  %4 = and i64 %3, -72057594037927936
  %5 = lshr i64 %4, 56
  %6 = load i64, ptr %2, align 8
  %7 = and i64 %6, 71776119061217280
  %8 = lshr i64 %7, 40
  %9 = or i64 %5, %8
  %10 = load i64, ptr %2, align 8
  %11 = and i64 %10, 280375465082880
  %12 = lshr i64 %11, 24
  %13 = or i64 %9, %12
  %14 = load i64, ptr %2, align 8
  %15 = and i64 %14, 1095216660480
  %16 = lshr i64 %15, 8
  %17 = or i64 %13, %16
  %18 = load i64, ptr %2, align 8
  %19 = and i64 %18, 4278190080
  %20 = shl i64 %19, 8
  %21 = or i64 %17, %20
  %22 = load i64, ptr %2, align 8
  %23 = and i64 %22, 16711680
  %24 = shl i64 %23, 24
  %25 = or i64 %21, %24
  %26 = load i64, ptr %2, align 8
  %27 = and i64 %26, 65280
  %28 = shl i64 %27, 40
  %29 = or i64 %25, %28
  %30 = load i64, ptr %2, align 8
  %31 = and i64 %30, 255
  %32 = shl i64 %31, 56
  %33 = or i64 %29, %32
  ret i64 %33
}

; Function Attrs: nounwind uwtable
define dso_local void @lzma_sha256_finish(ptr noundef %0) #0 {
  %2 = alloca ptr, align 8
  %3 = alloca i64, align 8
  %4 = alloca i64, align 8
  store ptr %0, ptr %2, align 8
  %5 = load ptr, ptr %2, align 8
  %6 = getelementptr inbounds %struct.lzma_check_state, ptr %5, i32 0, i32 1
  %7 = getelementptr inbounds %struct.lzma_sha256_state, ptr %6, i32 0, i32 1
  %8 = load i64, ptr %7, align 8
  %9 = and i64 %8, 63
  store i64 %9, ptr %3, align 8
  %10 = load ptr, ptr %2, align 8
  %11 = getelementptr inbounds %struct.lzma_check_state, ptr %10, i32 0, i32 0
  %12 = load i64, ptr %3, align 8
  %13 = add i64 %12, 1
  store i64 %13, ptr %3, align 8
  %14 = getelementptr inbounds [64 x i8], ptr %11, i64 0, i64 %12
  store i8 -128, ptr %14, align 1
  br label %15

15:                                               ; preds = %23, %1
  %16 = load i64, ptr %3, align 8
  %17 = icmp ne i64 %16, 56
  br i1 %17, label %18, label %29

18:                                               ; preds = %15
  %19 = load i64, ptr %3, align 8
  %20 = icmp eq i64 %19, 64
  br i1 %20, label %21, label %23

21:                                               ; preds = %18
  %22 = load ptr, ptr %2, align 8
  call void @process(ptr noundef %22)
  store i64 0, ptr %3, align 8
  br label %23

23:                                               ; preds = %21, %18
  %24 = load ptr, ptr %2, align 8
  %25 = getelementptr inbounds %struct.lzma_check_state, ptr %24, i32 0, i32 0
  %26 = load i64, ptr %3, align 8
  %27 = add i64 %26, 1
  store i64 %27, ptr %3, align 8
  %28 = getelementptr inbounds [64 x i8], ptr %25, i64 0, i64 %26
  store i8 0, ptr %28, align 1
  br label %15, !llvm.loop !7

29:                                               ; preds = %15
  %30 = load ptr, ptr %2, align 8
  %31 = getelementptr inbounds %struct.lzma_check_state, ptr %30, i32 0, i32 1
  %32 = getelementptr inbounds %struct.lzma_sha256_state, ptr %31, i32 0, i32 1
  %33 = load i64, ptr %32, align 8
  %34 = mul i64 %33, 8
  store i64 %34, ptr %32, align 8
  %35 = load ptr, ptr %2, align 8
  %36 = getelementptr inbounds %struct.lzma_check_state, ptr %35, i32 0, i32 1
  %37 = getelementptr inbounds %struct.lzma_sha256_state, ptr %36, i32 0, i32 1
  %38 = load i64, ptr %37, align 8
  %39 = call i64 @__bswap_64(i64 noundef %38)
  %40 = load ptr, ptr %2, align 8
  %41 = getelementptr inbounds %struct.lzma_check_state, ptr %40, i32 0, i32 0
  %42 = getelementptr inbounds [8 x i64], ptr %41, i64 0, i64 7
  store i64 %39, ptr %42, align 8
  %43 = load ptr, ptr %2, align 8
  call void @process(ptr noundef %43)
  store i64 0, ptr %4, align 8
  br label %44

44:                                               ; preds = %59, %29
  %45 = load i64, ptr %4, align 8
  %46 = icmp ult i64 %45, 8
  br i1 %46, label %47, label %62

47:                                               ; preds = %44
  %48 = load ptr, ptr %2, align 8
  %49 = getelementptr inbounds %struct.lzma_check_state, ptr %48, i32 0, i32 1
  %50 = getelementptr inbounds %struct.lzma_sha256_state, ptr %49, i32 0, i32 0
  %51 = load i64, ptr %4, align 8
  %52 = getelementptr inbounds [8 x i32], ptr %50, i64 0, i64 %51
  %53 = load i32, ptr %52, align 4
  %54 = call i32 @__bswap_32(i32 noundef %53)
  %55 = load ptr, ptr %2, align 8
  %56 = getelementptr inbounds %struct.lzma_check_state, ptr %55, i32 0, i32 0
  %57 = load i64, ptr %4, align 8
  %58 = getelementptr inbounds [16 x i32], ptr %56, i64 0, i64 %57
  store i32 %54, ptr %58, align 4
  br label %59

59:                                               ; preds = %47
  %60 = load i64, ptr %4, align 8
  %61 = add i64 %60, 1
  store i64 %61, ptr %4, align 8
  br label %44, !llvm.loop !8

62:                                               ; preds = %44
  ret void
}