; Function Attrs: nofree norecurse nosync nounwind memory(argmem: readwrite) uwtable
define dso_local void @lzma_sha256_finish(ptr noundef captures(none) %0) local_unnamed_addr #2 {
  %2 = getelementptr inbounds nuw i8, ptr %0, i64 96
  %3 = load i64, ptr %2, align 8
  %4 = and i64 %3, 63
  br label %5

5:                                                ; preds = %.backedge, %1
  %.1.sink = phi i64 [ %4, %1 ], [ %.1.sink.be, %.backedge ]
  %.sink = phi i8 [ -128, %1 ], [ 0, %.backedge ]
  %6 = getelementptr inbounds nuw [64 x i8], ptr %0, i64 0, i64 %.1.sink
  store i8 %.sink, ptr %6, align 1
  %.017 = add nuw nsw i64 %.1.sink, 1
  switch i64 %.1.sink, label %.backedge [
    i64 55, label %8
    i64 63, label %7
  ]

.backedge:                                        ; preds = %5, %7
  %.1.sink.be = phi i64 [ 0, %7 ], [ %.017, %5 ]
  br label %5, !llvm.loop !8

7:                                                ; preds = %5
  tail call fastcc void @process(ptr noundef nonnull %0)
  br label %.backedge

8:                                                ; preds = %5
  %9 = getelementptr inbounds nuw i8, ptr %0, i64 64
  %10 = load i64, ptr %2, align 8
  %11 = shl i64 %10, 3
  store i64 %11, ptr %2, align 8
  %12 = tail call noundef i64 @llvm.bswap.i64(i64 %11)
  %13 = getelementptr inbounds nuw i8, ptr %0, i64 56
  store i64 %12, ptr %13, align 8
  tail call fastcc void @process(ptr noundef nonnull %0)
  br label %14

14:                                               ; preds = %8, %14
  %.018 = phi i64 [ 0, %8 ], [ %19, %14 ]
  %15 = getelementptr inbounds nuw [8 x i32], ptr %9, i64 0, i64 %.018
  %16 = load i32, ptr %15, align 4
  %17 = tail call noundef i32 @llvm.bswap.i32(i32 %16)
  %18 = getelementptr inbounds nuw [16 x i32], ptr %0, i64 0, i64 %.018
  store i32 %17, ptr %18, align 4
  %19 = add nuw nsw i64 %.018, 1
  %exitcond.not = icmp eq i64 %19, 8
  br i1 %exitcond.not, label %20, label %14, !llvm.loop !9

20:                                               ; preds = %14
  ret void
}